; Function Attrs: nofree norecurse nosync nounwind memory(readwrite, inaccessiblemem: none) uwtable
define internal void @SDL_Blit_ARGB8888_XBGR8888_Modulate_Scale(ptr noundef captures(none) %0) #0 {
  %2 = getelementptr inbounds nuw i8, ptr %0, i64 112
  %3 = load i32, ptr %2, align 8
  %4 = getelementptr inbounds nuw i8, ptr %0, i64 120
  %5 = load i8, ptr %4, align 8
  %6 = zext i8 %5 to i32
  %7 = getelementptr inbounds nuw i8, ptr %0, i64 121
  %8 = load i8, ptr %7, align 1
  %9 = zext i8 %8 to i32
  %10 = getelementptr inbounds nuw i8, ptr %0, i64 122
  %11 = load i8, ptr %10, align 2
  %12 = zext i8 %11 to i32
  %13 = getelementptr inbounds nuw i8, ptr %0, i64 20
  %14 = load i32, ptr %13, align 4
  %15 = sext i32 %14 to i64
  %16 = shl nsw i64 %15, 16
  %17 = getelementptr inbounds nuw i8, ptr %0, i64 52
  %18 = load i32, ptr %17, align 4
  %19 = sext i32 %18 to i64
  %20 = udiv i64 %16, %19
  %21 = getelementptr inbounds nuw i8, ptr %0, i64 16
  %22 = load i32, ptr %21, align 8
  %23 = sext i32 %22 to i64
  %24 = shl nsw i64 %23, 16
  %25 = getelementptr inbounds nuw i8, ptr %0, i64 48
  %26 = load i32, ptr %25, align 8
  %27 = sext i32 %26 to i64
  %28 = udiv i64 %24, %27
  %29 = add nsw i32 %18, -1
  store i32 %29, ptr %17, align 4
  %.not65 = icmp eq i32 %18, 0
  br i1 %.not65, label %._crit_edge69, label %.lr.ph68

.lr.ph68:                                         ; preds = %1
  %30 = getelementptr inbounds nuw i8, ptr %0, i64 40
  %31 = lshr i64 %28, 1
  %32 = getelementptr inbounds nuw i8, ptr %0, i64 8
  %33 = getelementptr inbounds nuw i8, ptr %0, i64 24
  %34 = and i32 %3, 1
  %.not61 = icmp eq i32 %34, 0
  %35 = getelementptr inbounds nuw i8, ptr %0, i64 56
  %36 = icmp eq i32 %26, 0
  br i1 %36, label %.lr.ph68.split.us, label %.lr.ph68.split.preheader

.lr.ph68.split.preheader:                         ; preds = %.lr.ph68
  %37 = lshr i64 %20, 1
  br label %.lr.ph68.split

.lr.ph68.split.us:                                ; preds = %.lr.ph68
  %38 = load i32, ptr %35, align 8
  %39 = sext i32 %38 to i64
  %.promoted = load ptr, ptr %30, align 8
  %40 = zext i32 %18 to i64
  %41 = mul nsw i64 %40, %39
  %scevgep = getelementptr i8, ptr %.promoted, i64 %41
  store ptr %scevgep, ptr %30, align 8
  store i32 -1, ptr %17, align 4
  br label %._crit_edge69

.lr.ph68.split:                                   ; preds = %.lr.ph68.split.preheader, %._crit_edge
  %.05866 = phi i64 [ %104, %._crit_edge ], [ %37, %.lr.ph68.split.preheader ]
  %42 = load i32, ptr %25, align 8
  %43 = lshr i64 %.05866, 16
  %.not6062 = icmp eq i32 %42, 0
  br i1 %.not6062, label %._crit_edge, label %.lr.ph

.lr.ph:                                           ; preds = %.lr.ph68.split
  %44 = add nsw i32 %42, -1
  %45 = load ptr, ptr %30, align 8
  br i1 %.not61, label %.lr.ph.split.us, label %.lr.ph.split

.lr.ph.split.us:                                  ; preds = %.lr.ph, %.lr.ph.split.us
  %46 = phi i32 [ %65, %.lr.ph.split.us ], [ %44, %.lr.ph ]
  %.05664.us = phi ptr [ %64, %.lr.ph.split.us ], [ %45, %.lr.ph ]
  %.05963.us = phi i64 [ %63, %.lr.ph.split.us ], [ %31, %.lr.ph ]
  %47 = load ptr, ptr %32, align 8
  %48 = load i32, ptr %33, align 8
  %49 = sext i32 %48 to i64
  %50 = mul i64 %43, %49
  %51 = getelementptr inbounds nuw i8, ptr %47, i64 %50
  %52 = lshr i64 %.05963.us, 14
  %53 = and i64 %52, 1125899906842620
  %54 = getelementptr inbounds nuw i8, ptr %51, i64 %53
  %55 = load i32, ptr %54, align 4
  %56 = lshr i32 %55, 16
  %57 = and i32 %56, 255
  %58 = and i32 %55, 65280
  %59 = shl i32 %55, 16
  %60 = and i32 %59, 16711680
  %61 = or disjoint i32 %58, %60
  %62 = or disjoint i32 %61, %57
  store i32 %62, ptr %.05664.us, align 4
  %63 = add i64 %.05963.us, %28
  %64 = getelementptr inbounds nuw i8, ptr %.05664.us, i64 4
  %65 = add nsw i32 %46, -1
  %.not60.us = icmp eq i32 %46, 0
  br i1 %.not60.us, label %._crit_edge, label %.lr.ph.split.us, !llvm.loop !139

.lr.ph.split:                                     ; preds = %.lr.ph, %.lr.ph.split
  %66 = phi i32 [ %103, %.lr.ph.split ], [ %44, %.lr.ph ]
  %.05664 = phi ptr [ %102, %.lr.ph.split ], [ %45, %.lr.ph ]
  %.05963 = phi i64 [ %101, %.lr.ph.split ], [ %31, %.lr.ph ]
  %67 = load ptr, ptr %32, align 8
  %68 = load i32, ptr %33, align 8
  %69 = sext i32 %68 to i64
  %70 = mul i64 %43, %69
  %71 = getelementptr inbounds nuw i8, ptr %67, i64 %70
  %72 = lshr i64 %.05963, 14
  %73 = and i64 %72, 1125899906842620
  %74 = getelementptr inbounds nuw i8, ptr %71, i64 %73
  %75 = load i32, ptr %74, align 4
  %76 = lshr i32 %75, 16
  %77 = and i32 %76, 255
  %78 = lshr i32 %75, 8
  %79 = and i32 %78, 255
  %80 = and i32 %75, 255
  %81 = mul nuw nsw i32 %77, %6
  %82 = add nuw nsw i32 %81, 1
  %83 = lshr i32 %82, 8
  %84 = and i32 %83, 255
  %85 = add nuw nsw i32 %84, %82
  %86 = lshr i32 %85, 8
  %87 = and i32 %86, 255
  %88 = mul nuw nsw i32 %79, %9
  %89 = add nuw nsw i32 %88, 1
  %90 = lshr i32 %89, 8
  %91 = and i32 %90, 255
  %92 = add nuw nsw i32 %91, %89
  %93 = and i32 %92, 65280
  %94 = mul nuw nsw i32 %80, %12
  %95 = add nuw nsw i32 %94, 1
  %96 = shl nuw nsw i32 %95, 8
  %.mask = and i32 %95, 65280
  %97 = add nuw nsw i32 %.mask, %96
  %98 = and i32 %97, 16711680
  %99 = or disjoint i32 %93, %98
  %100 = or disjoint i32 %99, %87
  store i32 %100, ptr %.05664, align 4
  %101 = add i64 %.05963, %28
  %102 = getelementptr inbounds nuw i8, ptr %.05664, i64 4
  %103 = add nsw i32 %66, -1
  %.not60 = icmp eq i32 %66, 0
  br i1 %.not60, label %._crit_edge, label %.lr.ph.split, !llvm.loop !139

._crit_edge:                                      ; preds = %.lr.ph.split, %.lr.ph.split.us, %.lr.ph68.split
  %104 = add i64 %.05866, %20
  %105 = load i32, ptr %35, align 8
  %106 = load ptr, ptr %30, align 8
  %107 = sext i32 %105 to i64
  %108 = getelementptr inbounds i8, ptr %106, i64 %107
  store ptr %108, ptr %30, align 8
  %109 = load i32, ptr %17, align 4
  %110 = add nsw i32 %109, -1
  store i32 %110, ptr %17, align 4
  %.not = icmp eq i32 %109, 0
  br i1 %.not, label %._crit_edge69, label %.lr.ph68.split, !llvm.loop !140

._crit_edge69:                                    ; preds = %._crit_edge, %.lr.ph68.split.us, %1
  ret void
}